; Function Attrs: nounwind sspstrong uwtable
define internal noundef i64 @wkmap_aset(i64 noundef %0, i64 noundef %1, i64 noundef returned %2) #0 {
  %4 = alloca i64, align 8
  %5 = alloca %struct.wkmap_aset_args, align 8
  store i64 %1, ptr %4, align 8, !tbaa !7
  %6 = tail call ptr @rb_check_typeddata(i64 noundef %0, ptr noundef nonnull @weakkeymap_type) #10
  %7 = icmp eq i64 %1, 0
  %8 = and i64 %1, 7
  %9 = icmp ne i64 %8, 0
  %10 = or i1 %7, %9
  br i1 %10, label %RB_FL_ABLE.exit.thread, label %RB_FL_ABLE.exit

RB_FL_ABLE.exit:                                  ; preds = %3
  %11 = inttoptr i64 %1 to ptr
  %12 = load i64, ptr %11, align 8, !tbaa !25
  %13 = and i64 %12, 31
  switch i64 %13, label %15 [
    i64 27, label %RB_FL_ABLE.exit.thread
    i64 20, label %RB_FL_ABLE.exit.thread
    i64 10, label %RB_FL_ABLE.exit.thread
    i64 4, label %RB_FL_ABLE.exit.thread
  ]

RB_FL_ABLE.exit.thread:                           ; preds = %RB_FL_ABLE.exit, %RB_FL_ABLE.exit, %RB_FL_ABLE.exit, %RB_FL_ABLE.exit, %3
  %14 = load i64, ptr @rb_eArgError, align 8, !tbaa !7
  tail call void (i64, ptr, ...) @rb_raise(i64 noundef %14, ptr noundef nonnull @.str.28) #11
  unreachable

15:                                               ; preds = %RB_FL_ABLE.exit
  call void @llvm.lifetime.start.p0(i64 16, ptr nonnull %5) #10
  store i64 %1, ptr %5, align 8, !tbaa !32
  %16 = getelementptr inbounds nuw i8, ptr %5, i64 8
  store i64 %2, ptr %16, align 8, !tbaa !34
  %17 = load ptr, ptr %6, align 8, !tbaa !30
  %18 = ptrtoint ptr %4 to i64
  %19 = ptrtoint ptr %5 to i64
  %20 = call i32 @rb_st_update(ptr noundef %17, i64 noundef %18, ptr noundef nonnull @wkmap_aset_replace, i64 noundef %19) #10
  %21 = load i64, ptr %4, align 8, !tbaa !7
  %22 = icmp eq i64 %21, 0
  %23 = and i64 %21, 7
  %24 = icmp ne i64 %23, 0
  %25 = or i1 %22, %24
  br i1 %25, label %rb_obj_written.exit, label %26

26:                                               ; preds = %15
  call void @rb_gc_writebarrier(i64 noundef %0, i64 noundef %21) #10
  br label %rb_obj_written.exit

rb_obj_written.exit:                              ; preds = %15, %26
  %27 = icmp eq i64 %2, 0
  %28 = and i64 %2, 7
  %29 = icmp ne i64 %28, 0
  %30 = or i1 %27, %29
  br i1 %30, label %rb_obj_written.exit13, label %31

31:                                               ; preds = %rb_obj_written.exit
  call void @rb_gc_writebarrier(i64 noundef %0, i64 noundef %2) #10
  br label %rb_obj_written.exit13

rb_obj_written.exit13:                            ; preds = %rb_obj_written.exit, %31
  call void @llvm.lifetime.end.p0(i64 16, ptr nonnull %5) #10
  ret i64 %2
}